; Function Attrs: mustprogress nofree norecurse nosync nounwind willreturn memory(read, inaccessiblemem: none) uwtable
define hidden noundef zeroext i1 @_ZN3adeneERKNS_20MemoryDescriptorViewEDn(ptr noundef nonnull readonly align 8 captures(none) dereferenceable(96) %0, ptr readnone captures(none) %1) local_unnamed_addr #12 {
  %3 = getelementptr inbounds nuw i8, ptr %0, i64 8
  %4 = load ptr, ptr %3, align 8, !tbaa !20
  %.not.i = icmp eq ptr %4, null
  br i1 %.not.i, label %_ZNK3ade20MemoryDescriptorView13getDescriptorEv.exit, label %tailrecurse.i.i

tailrecurse.i.i:                                  ; preds = %2, %tailrecurse.i.i
  %.tr.i.i = phi ptr [ %6, %tailrecurse.i.i ], [ %4, %2 ]
  %5 = getelementptr inbounds nuw i8, ptr %.tr.i.i, i64 8
  %6 = load ptr, ptr %5, align 8, !tbaa !20
  %.not.i.i = icmp eq ptr %6, null
  br i1 %.not.i.i, label %_ZNK3ade20MemoryDescriptorView13getDescriptorEv.exit, label %tailrecurse.i.i

_ZNK3ade20MemoryDescriptorView13getDescriptorEv.exit: ; preds = %tailrecurse.i.i, %2
  %.0.in.i = phi ptr [ %0, %2 ], [ %.tr.i.i, %tailrecurse.i.i ]
  %.0.i = load ptr, ptr %.0.in.i, align 8, !tbaa !19
  %7 = icmp ne ptr %.0.i, null
  ret i1 %7
}